target datalayout = "e-m:e-p270:32:32-p271:32:32-p272:64:64-i64:64-i128:128-f80:128-n8:16:32:64-S128"
target triple = "x86_64-pc-linux-gnu"

%struct.sct_st = type { i32, ptr, i64, ptr, i64, i64, ptr, i64, i8, i8, ptr, i64, i32, i32, i32 }

@.str = private unnamed_addr constant [30 x i8] c"../openssl/crypto/ct/ct_sct.c\00", align 1
@__func__.SCT_set_signature_nid = private unnamed_addr constant [22 x i8] c"SCT_set_signature_nid\00", align 1

; Function Attrs: nounwind uwtable
define i32 @SCT_set_signature_nid(ptr noundef %0, i32 noundef %1) #0 {
  %3 = alloca i32, align 4
  %4 = alloca ptr, align 8
  %5 = alloca i32, align 4
  store ptr %0, ptr %4, align 8, !tbaa !3
  store i32 %1, ptr %5, align 4, !tbaa !21
  %6 = load i32, ptr %5, align 4, !tbaa !21
  switch i32 %6, label %21 [
    i32 668, label %7
    i32 794, label %14
  ]

7:                                                ; preds = %2
  %8 = load ptr, ptr %4, align 8, !tbaa !3
  %9 = getelementptr inbounds nuw %struct.sct_st, ptr %8, i32 0, i32 8
  store i8 4, ptr %9, align 8, !tbaa !27
  %10 = load ptr, ptr %4, align 8, !tbaa !3
  %11 = getelementptr inbounds nuw %struct.sct_st, ptr %10, i32 0, i32 9
  store i8 1, ptr %11, align 1, !tbaa !28
  %12 = load ptr, ptr %4, align 8, !tbaa !3
  %13 = getelementptr inbounds nuw %struct.sct_st, ptr %12, i32 0, i32 14
  store i32 0, ptr %13, align 8, !tbaa !22
  store i32 1, ptr %3, align 4
  br label %22

14:                                               ; preds = %2
  %15 = load ptr, ptr %4, align 8, !tbaa !3
  %16 = getelementptr inbounds nuw %struct.sct_st, ptr %15, i32 0, i32 8
  store i8 4, ptr %16, align 8, !tbaa !27
  %17 = load ptr, ptr %4, align 8, !tbaa !3
  %18 = getelementptr inbounds nuw %struct.sct_st, ptr %17, i32 0, i32 9
  store i8 3, ptr %18, align 1, !tbaa !28
  %19 = load ptr, ptr %4, align 8, !tbaa !3
  %20 = getelementptr inbounds nuw %struct.sct_st, ptr %19, i32 0, i32 14
  store i32 0, ptr %20, align 8, !tbaa !22
  store i32 1, ptr %3, align 4
  br label %22

21:                                               ; preds = %2
  call void @ERR_new()
  call void @ERR_set_debug(ptr noundef @.str, i32 noundef 134, ptr noundef @__func__.SCT_set_signature_nid)
  call void (i32, i32, ptr, ...) @ERR_set_error(i32 noundef 50, i32 noundef 101, ptr noundef null)
  store i32 0, ptr %3, align 4
  br label %22

22:                                               ; preds = %21, %14, %7
  %23 = load i32, ptr %3, align 4
  ret i32 %23
}