; Function Attrs: nounwind uwtable
define range(i32 0, 2) i32 @SCT_set_signature_nid(ptr noundef writeonly captures(none) %0, i32 noundef %1) local_unnamed_addr #0 {
  switch i32 %1, label %11 [
    i32 668, label %3
    i32 794, label %7
  ]

3:                                                ; preds = %2
  %4 = getelementptr inbounds nuw i8, ptr %0, i64 64
  store i8 4, ptr %4, align 8, !tbaa !19
  %5 = getelementptr inbounds nuw i8, ptr %0, i64 65
  store i8 1, ptr %5, align 1, !tbaa !20
  %6 = getelementptr inbounds nuw i8, ptr %0, i64 96
  store i32 0, ptr %6, align 8, !tbaa !16
  br label %12

7:                                                ; preds = %2
  %8 = getelementptr inbounds nuw i8, ptr %0, i64 64
  store i8 4, ptr %8, align 8, !tbaa !19
  %9 = getelementptr inbounds nuw i8, ptr %0, i64 65
  store i8 3, ptr %9, align 1, !tbaa !20
  %10 = getelementptr inbounds nuw i8, ptr %0, i64 96
  store i32 0, ptr %10, align 8, !tbaa !16
  br label %12

11:                                               ; preds = %2
  tail call void @ERR_new() #7
  tail call void @ERR_set_debug(ptr noundef nonnull @.str, i32 noundef 134, ptr noundef nonnull @__func__.SCT_set_signature_nid) #7
  tail call void (i32, i32, ptr, ...) @ERR_set_error(i32 noundef 50, i32 noundef 101, ptr noundef null) #7
  br label %12

12:                                               ; preds = %11, %7, %3
  %.0 = phi i32 [ 0, %11 ], [ 1, %7 ], [ 1, %3 ]
  ret i32 %.0
}